; Function Attrs: nounwind uwtable
define noundef ptr @l_Std_Format_joinSep___at_Lean_instReprSMap___spec__4___rarg(ptr noundef %0, ptr noundef %1, ptr noundef %2, ptr noundef %3) #0 {
  %5 = ptrtoint ptr %2 to i64
  %6 = and i64 %5, 1
  %.not.i52 = icmp eq i64 %6, 0
  br i1 %.not.i52, label %10, label %7

7:                                                ; preds = %4
  %8 = lshr i64 %5, 1
  %9 = trunc i64 %8 to i32
  br label %lean_obj_tag.exit

10:                                               ; preds = %4
  %11 = getelementptr i8, ptr %2, i64 4
  %.val.i = load i32, ptr %11, align 4
  %12 = lshr i32 %.val.i, 24
  br label %lean_obj_tag.exit

lean_obj_tag.exit:                                ; preds = %7, %10
  %.0.i = phi i32 [ %9, %7 ], [ %12, %10 ]
  %13 = icmp eq i32 %.0.i, 0
  br i1 %13, label %14, label %42

14:                                               ; preds = %lean_obj_tag.exit
  %15 = ptrtoint ptr %3 to i64
  %16 = and i64 %15, 1
  %.not79 = icmp eq i64 %16, 0
  br i1 %.not79, label %17, label %lean_dec.exit37

17:                                               ; preds = %14
  %18 = load i32, ptr %3, align 4, !tbaa !10
  %19 = icmp sgt i32 %18, 1
  br i1 %19, label %20, label %22, !prof !15

20:                                               ; preds = %17
  %21 = add nsw i32 %18, -1
  store i32 %21, ptr %3, align 4, !tbaa !10
  br label %lean_dec.exit37

22:                                               ; preds = %17
  %.not.i = icmp eq i32 %18, 0
  br i1 %.not.i, label %lean_dec.exit37, label %23

23:                                               ; preds = %22
  tail call void @lean_dec_ref_cold(ptr noundef nonnull %3) #3
  br label %lean_dec.exit37

lean_dec.exit37:                                  ; preds = %23, %22, %20, %14
  %24 = ptrtoint ptr %1 to i64
  %25 = and i64 %24, 1
  %.not80 = icmp eq i64 %25, 0
  br i1 %.not80, label %26, label %lean_dec.exit36

26:                                               ; preds = %lean_dec.exit37
  %27 = load i32, ptr %1, align 4, !tbaa !10
  %28 = icmp sgt i32 %27, 1
  br i1 %28, label %29, label %31, !prof !15

29:                                               ; preds = %26
  %30 = add nsw i32 %27, -1
  store i32 %30, ptr %1, align 4, !tbaa !10
  br label %lean_dec.exit36

31:                                               ; preds = %26
  %.not.i42 = icmp eq i32 %27, 0
  br i1 %.not.i42, label %lean_dec.exit36, label %32

32:                                               ; preds = %31
  tail call void @lean_dec_ref_cold(ptr noundef nonnull %1) #3
  br label %lean_dec.exit36

lean_dec.exit36:                                  ; preds = %32, %31, %29, %lean_dec.exit37
  %33 = ptrtoint ptr %0 to i64
  %34 = and i64 %33, 1
  %.not81 = icmp eq i64 %34, 0
  br i1 %.not81, label %35, label %lean_dec.exit35

35:                                               ; preds = %lean_dec.exit36
  %36 = load i32, ptr %0, align 4, !tbaa !10
  %37 = icmp sgt i32 %36, 1
  br i1 %37, label %38, label %40, !prof !15

38:                                               ; preds = %35
  %39 = add nsw i32 %36, -1
  store i32 %39, ptr %0, align 4, !tbaa !10
  br label %lean_dec.exit35

40:                                               ; preds = %35
  %.not.i44 = icmp eq i32 %36, 0
  br i1 %.not.i44, label %lean_dec.exit35, label %41

41:                                               ; preds = %40
  tail call void @lean_dec_ref_cold(ptr noundef nonnull %0) #3
  br label %lean_dec.exit35

42:                                               ; preds = %lean_obj_tag.exit
  %43 = getelementptr inbounds nuw i8, ptr %2, i64 8
  %44 = getelementptr inbounds nuw i8, ptr %2, i64 16
  %45 = load ptr, ptr %44, align 8, !tbaa !4
  %46 = ptrtoint ptr %45 to i64
  %47 = and i64 %46, 1
  %.not = icmp eq i64 %47, 0
  br i1 %.not, label %48, label %lean_inc.exit41

48:                                               ; preds = %42
  %.val.i53 = load i32, ptr %45, align 4, !tbaa !10
  %49 = icmp sgt i32 %.val.i53, 0
  br i1 %49, label %50, label %52, !prof !15

50:                                               ; preds = %48
  %51 = add nuw i32 %.val.i53, 1
  store i32 %51, ptr %45, align 4, !tbaa !10
  br label %56

52:                                               ; preds = %48
  %.not.i54 = icmp eq i32 %.val.i53, 0
  br i1 %.not.i54, label %56, label %53

53:                                               ; preds = %52
  tail call void @lean_inc_ref_cold(ptr noundef nonnull %45) #3
  br label %56

lean_inc.exit41:                                  ; preds = %42
  %54 = lshr i64 %46, 1
  %55 = trunc i64 %54 to i32
  br label %lean_obj_tag.exit58

56:                                               ; preds = %53, %52, %50
  %57 = getelementptr i8, ptr %45, i64 4
  %.val.i57 = load i32, ptr %57, align 4
  %58 = lshr i32 %.val.i57, 24
  br label %lean_obj_tag.exit58

lean_obj_tag.exit58:                              ; preds = %lean_inc.exit41, %56
  %.0.i56 = phi i32 [ %55, %lean_inc.exit41 ], [ %58, %56 ]
  %59 = icmp eq i32 %.0.i56, 0
  br i1 %59, label %60, label %87

60:                                               ; preds = %lean_obj_tag.exit58
  %61 = ptrtoint ptr %3 to i64
  %62 = and i64 %61, 1
  %.not76 = icmp eq i64 %62, 0
  br i1 %.not76, label %63, label %lean_dec.exit34

63:                                               ; preds = %60
  %64 = load i32, ptr %3, align 4, !tbaa !10
  %65 = icmp sgt i32 %64, 1
  br i1 %65, label %66, label %68, !prof !15

66:                                               ; preds = %63
  %67 = add nsw i32 %64, -1
  store i32 %67, ptr %3, align 4, !tbaa !10
  br label %lean_dec.exit34

68:                                               ; preds = %63
  %.not.i46 = icmp eq i32 %64, 0
  br i1 %.not.i46, label %lean_dec.exit34, label %69

69:                                               ; preds = %68
  tail call void @lean_dec_ref_cold(ptr noundef nonnull %3) #3
  br label %lean_dec.exit34

lean_dec.exit34:                                  ; preds = %69, %68, %66, %60
  %70 = load ptr, ptr %43, align 8, !tbaa !4
  %71 = ptrtoint ptr %70 to i64
  %72 = and i64 %71, 1
  %.not77 = icmp eq i64 %72, 0
  br i1 %.not77, label %73, label %lean_inc.exit40

73:                                               ; preds = %lean_dec.exit34
  %.val.i59 = load i32, ptr %70, align 4, !tbaa !10
  %74 = icmp sgt i32 %.val.i59, 0
  br i1 %74, label %75, label %77, !prof !15

75:                                               ; preds = %73
  %76 = add nuw i32 %.val.i59, 1
  store i32 %76, ptr %70, align 4, !tbaa !10
  br label %lean_inc.exit40

77:                                               ; preds = %73
  %.not.i60 = icmp eq i32 %.val.i59, 0
  br i1 %.not.i60, label %lean_inc.exit40, label %78

78:                                               ; preds = %77
  tail call void @lean_inc_ref_cold(ptr noundef nonnull %70) #3
  br label %lean_inc.exit40

lean_inc.exit40:                                  ; preds = %78, %77, %75, %lean_dec.exit34
  br i1 %.not.i52, label %79, label %lean_dec.exit33

79:                                               ; preds = %lean_inc.exit40
  %80 = load i32, ptr %2, align 4, !tbaa !10
  %81 = icmp sgt i32 %80, 1
  br i1 %81, label %82, label %84, !prof !15

82:                                               ; preds = %79
  %83 = add nsw i32 %80, -1
  store i32 %83, ptr %2, align 4, !tbaa !10
  br label %lean_dec.exit33

84:                                               ; preds = %79
  %.not.i48 = icmp eq i32 %80, 0
  br i1 %.not.i48, label %lean_dec.exit33, label %85

85:                                               ; preds = %84
  tail call void @lean_dec_ref_cold(ptr noundef nonnull %2) #3
  br label %lean_dec.exit33

lean_dec.exit33:                                  ; preds = %85, %84, %82, %lean_inc.exit40
  %86 = tail call ptr @l_Prod_repr___at_Lean_instReprSMap___spec__3___rarg(ptr noundef %0, ptr noundef %1, ptr noundef %70, ptr nonnull poison)
  br label %lean_dec.exit35

87:                                               ; preds = %lean_obj_tag.exit58
  %88 = load ptr, ptr %43, align 8, !tbaa !4
  %89 = ptrtoint ptr %88 to i64
  %90 = and i64 %89, 1
  %.not72 = icmp eq i64 %90, 0
  br i1 %.not72, label %91, label %lean_inc.exit39

91:                                               ; preds = %87
  %.val.i62 = load i32, ptr %88, align 4, !tbaa !10
  %92 = icmp sgt i32 %.val.i62, 0
  br i1 %92, label %93, label %95, !prof !15

93:                                               ; preds = %91
  %94 = add nuw i32 %.val.i62, 1
  store i32 %94, ptr %88, align 4, !tbaa !10
  br label %lean_inc.exit39

95:                                               ; preds = %91
  %.not.i63 = icmp eq i32 %.val.i62, 0
  br i1 %.not.i63, label %lean_inc.exit39, label %96

96:                                               ; preds = %95
  tail call void @lean_inc_ref_cold(ptr noundef nonnull %88) #3
  br label %lean_inc.exit39

lean_inc.exit39:                                  ; preds = %96, %95, %93, %87
  br i1 %.not.i52, label %97, label %lean_dec.exit

97:                                               ; preds = %lean_inc.exit39
  %98 = load i32, ptr %2, align 4, !tbaa !10
  %99 = icmp sgt i32 %98, 1
  br i1 %99, label %100, label %102, !prof !15

100:                                              ; preds = %97
  %101 = add nsw i32 %98, -1
  store i32 %101, ptr %2, align 4, !tbaa !10
  br label %lean_dec.exit

102:                                              ; preds = %97
  %.not.i50 = icmp eq i32 %98, 0
  br i1 %.not.i50, label %lean_dec.exit, label %103

103:                                              ; preds = %102
  tail call void @lean_dec_ref_cold(ptr noundef nonnull %2) #3
  br label %lean_dec.exit

lean_dec.exit:                                    ; preds = %103, %102, %100, %lean_inc.exit39
  %104 = ptrtoint ptr %1 to i64
  %105 = and i64 %104, 1
  %.not74 = icmp eq i64 %105, 0
  br i1 %.not74, label %106, label %lean_inc.exit38

106:                                              ; preds = %lean_dec.exit
  %.val.i65 = load i32, ptr %1, align 4, !tbaa !10
  %107 = icmp sgt i32 %.val.i65, 0
  br i1 %107, label %108, label %110, !prof !15

108:                                              ; preds = %106
  %109 = add nuw i32 %.val.i65, 1
  store i32 %109, ptr %1, align 4, !tbaa !10
  br label %lean_inc.exit38

110:                                              ; preds = %106
  %.not.i66 = icmp eq i32 %.val.i65, 0
  br i1 %.not.i66, label %lean_inc.exit38, label %111

111:                                              ; preds = %110
  tail call void @lean_inc_ref_cold(ptr noundef nonnull %1) #3
  br label %lean_inc.exit38

lean_inc.exit38:                                  ; preds = %111, %110, %108, %lean_dec.exit
  %112 = ptrtoint ptr %0 to i64
  %113 = and i64 %112, 1
  %.not75 = icmp eq i64 %113, 0
  br i1 %.not75, label %114, label %lean_inc.exit

114:                                              ; preds = %lean_inc.exit38
  %.val.i68 = load i32, ptr %0, align 4, !tbaa !10
  %115 = icmp sgt i32 %.val.i68, 0
  br i1 %115, label %116, label %118, !prof !15

116:                                              ; preds = %114
  %117 = add nuw i32 %.val.i68, 1
  store i32 %117, ptr %0, align 4, !tbaa !10
  br label %lean_inc.exit

118:                                              ; preds = %114
  %.not.i69 = icmp eq i32 %.val.i68, 0
  br i1 %.not.i69, label %lean_inc.exit, label %119

119:                                              ; preds = %118
  tail call void @lean_inc_ref_cold(ptr noundef nonnull %0) #3
  br label %lean_inc.exit

lean_inc.exit:                                    ; preds = %119, %118, %116, %lean_inc.exit38
  %120 = tail call ptr @l_Prod_repr___at_Lean_instReprSMap___spec__3___rarg(ptr noundef %0, ptr noundef %1, ptr noundef %88, ptr nonnull poison)
  %121 = tail call ptr @l_List_foldl___at_Lean_instReprSMap___spec__5___rarg(ptr noundef %0, ptr noundef %1, ptr noundef %3, ptr noundef nonnull %120, ptr noundef %45)
  br label %lean_dec.exit35

lean_dec.exit35:                                  ; preds = %lean_dec.exit36, %38, %40, %41, %lean_dec.exit33, %lean_inc.exit
  %.0 = phi ptr [ %86, %lean_dec.exit33 ], [ %121, %lean_inc.exit ], [ inttoptr (i64 1 to ptr), %41 ], [ inttoptr (i64 1 to ptr), %40 ], [ inttoptr (i64 1 to ptr), %38 ], [ inttoptr (i64 1 to ptr), %lean_dec.exit36 ]
  ret ptr %.0
}